; Function Attrs: mustprogress nofree nounwind memory(readwrite, inaccessiblemem: read) uwtable
define noundef zeroext i1 @_ZN10open_spiel10algorithms26DeterministicTabularPolicy10NextPolicyEv(ptr noundef nonnull readonly align 8 dereferenceable(60) %0) local_unnamed_addr #7 align 2 {
  %2 = getelementptr inbounds i8, ptr %0, i64 32
  %3 = load ptr, ptr %2, align 8
  %4 = getelementptr inbounds i8, ptr %0, i64 16
  %.not18 = icmp eq ptr %3, %4
  br i1 %.not18, label %.loopexit, label %.lr.ph

.lr.ph:                                           ; preds = %1, %_ZN10open_spiel10algorithms15LegalsWithIndex11TryIncIndexEv.exit
  %.sroa.05.014 = phi ptr [ %23, %_ZN10open_spiel10algorithms15LegalsWithIndex11TryIncIndexEv.exit ], [ %3, %1 ]
  %5 = getelementptr inbounds i8, ptr %.sroa.05.014, i64 64
  %6 = getelementptr inbounds i8, ptr %.sroa.05.014, i64 88
  %7 = load i32, ptr %6, align 8
  %8 = add nsw i32 %7, 1
  %9 = sext i32 %8 to i64
  %10 = getelementptr inbounds i8, ptr %.sroa.05.014, i64 72
  %11 = load ptr, ptr %10, align 8
  %12 = load ptr, ptr %5, align 8
  %13 = ptrtoint ptr %11 to i64
  %14 = ptrtoint ptr %12 to i64
  %15 = sub i64 %13, %14
  %16 = ashr exact i64 %15, 3
  %17 = icmp ugt i64 %16, %9
  br i1 %17, label %18, label %_ZN10open_spiel10algorithms15LegalsWithIndex11TryIncIndexEv.exit

18:                                               ; preds = %.lr.ph
  %19 = getelementptr inbounds i8, ptr %.sroa.05.014, i64 88
  store i32 %8, ptr %19, align 8
  %20 = load ptr, ptr %2, align 8
  %.not15 = icmp eq ptr %20, %.sroa.05.014
  br i1 %.not15, label %.loopexit, label %.lr.ph17

.lr.ph17:                                         ; preds = %18, %.lr.ph17
  %.sroa.0.016 = phi ptr [ %22, %.lr.ph17 ], [ %20, %18 ]
  %21 = getelementptr inbounds i8, ptr %.sroa.0.016, i64 88
  store i32 0, ptr %21, align 8
  %22 = tail call noundef ptr @_ZSt18_Rb_tree_incrementPSt18_Rb_tree_node_base(ptr noundef %.sroa.0.016) #26
  %.not = icmp eq ptr %22, %.sroa.05.014
  br i1 %.not, label %.loopexit, label %.lr.ph17, !llvm.loop !19

_ZN10open_spiel10algorithms15LegalsWithIndex11TryIncIndexEv.exit: ; preds = %.lr.ph
  %23 = tail call noundef ptr @_ZSt18_Rb_tree_incrementPSt18_Rb_tree_node_base(ptr noundef nonnull %.sroa.05.014) #26
  %.not19 = icmp eq ptr %23, %4
  br i1 %.not19, label %.loopexit, label %.lr.ph, !llvm.loop !20

.loopexit:                                        ; preds = %_ZN10open_spiel10algorithms15LegalsWithIndex11TryIncIndexEv.exit, %.lr.ph17, %1, %18
  %24 = phi i1 [ true, %18 ], [ false, %1 ], [ true, %.lr.ph17 ], [ false, %_ZN10open_spiel10algorithms15LegalsWithIndex11TryIncIndexEv.exit ]
  ret i1 %24
}